target datalayout = "e-m:e-p270:32:32-p271:32:32-p272:64:64-i64:64-i128:128-f80:128-n8:16:32:64-S128"
target triple = "x86_64-pc-linux-gnu"

%struct.ident_t = type { i32, i32, i32, i32, ptr }
%"struct.faiss::HammingComputer8" = type { i64 }
%"struct.std::_Vector_base.12" = type { %"struct.std::_Vector_base<faiss::HCounterState<faiss::HammingComputer8>, std::allocator<faiss::HCounterState<faiss::HammingComputer8>>>::_Vector_impl" }
%"struct.std::_Vector_base<faiss::HCounterState<faiss::HammingComputer8>, std::allocator<faiss::HCounterState<faiss::HammingComputer8>>>::_Vector_impl" = type { %"struct.std::_Vector_base<faiss::HCounterState<faiss::HammingComputer8>, std::allocator<faiss::HCounterState<faiss::HammingComputer8>>>::_Vector_impl_data" }
%"struct.std::_Vector_base<faiss::HCounterState<faiss::HammingComputer8>, std::allocator<faiss::HCounterState<faiss::HammingComputer8>>>::_Vector_impl_data" = type { ptr, ptr, ptr }
%"struct.faiss::HCounterState.16" = type { ptr, ptr, %"struct.faiss::HammingComputer8", i32, i32, i32, i32 }

@1 = private unnamed_addr constant %struct.ident_t { i32 0, i32 514, i32 0, i32 22, ptr @0 }, align 8

; Function Attrs: inlinehint mustprogress nounwind uwtable
define linkonce_odr noundef i32 @_ZN5faiss10popcount64Em(i64 noundef %0) #3 comdat {
  %2 = alloca i64, align 8
  store i64 %0, ptr %2, align 8, !tbaa !9
  %3 = load i64, ptr %2, align 8, !tbaa !9
  %4 = call i64 @llvm.ctpop.i64(i64 %3)
  %5 = trunc i64 %4 to i32
  ret i32 %5
}

; Function Attrs: inlinehint mustprogress nounwind uwtable
define linkonce_odr noundef i32 @_ZNK5faiss16HammingComputer87hammingEPKh(ptr noundef nonnull align 8 dereferenceable(8) %0, ptr noundef %1) #3 comdat align 2 {
  %3 = alloca ptr, align 8
  %4 = alloca ptr, align 8
  store ptr %0, ptr %3, align 8, !tbaa !153
  store ptr %1, ptr %4, align 8, !tbaa !21
  %5 = load ptr, ptr %3, align 8
  %6 = load ptr, ptr %4, align 8, !tbaa !21
  %7 = load i64, ptr %6, align 8, !tbaa !9
  %8 = getelementptr inbounds nuw %"struct.faiss::HammingComputer8", ptr %5, i32 0, i32 0
  %9 = load i64, ptr %8, align 8, !tbaa !155
  %10 = xor i64 %7, %9
  %11 = call noundef i32 @_ZN5faiss10popcount64Em(i64 noundef %10)
  ret i32 %11
}

; Function Attrs: noinline noreturn nounwind uwtable
define linkonce_odr hidden void @__clang_call_terminate(ptr noundef %0) #9 comdat {
  %2 = call ptr @__cxa_begin_catch(ptr %0) #7
  call void @_ZSt9terminatev() #20
  unreachable
}

; Function Attrs: mustprogress nounwind uwtable
define linkonce_odr void @_ZN5faiss13HCounterStateINS_16HammingComputer8EE14update_counterEPKhm(ptr noundef nonnull align 8 dereferenceable(40) %0, ptr noundef %1, i64 noundef %2) #5 comdat align 2 {
  %4 = alloca ptr, align 8
  %5 = alloca ptr, align 8
  %6 = alloca i64, align 8
  %7 = alloca i32, align 4
  store ptr %0, ptr %4, align 8, !tbaa !599
  store ptr %1, ptr %5, align 8, !tbaa !21
  store i64 %2, ptr %6, align 8, !tbaa !9
  %8 = load ptr, ptr %4, align 8
  call void @llvm.lifetime.start.p0(i64 4, ptr %7) #7
  %9 = getelementptr inbounds nuw %"struct.faiss::HCounterState.16", ptr %8, i32 0, i32 2
  %10 = load ptr, ptr %5, align 8, !tbaa !21
  %11 = call noundef i32 @_ZNK5faiss16HammingComputer87hammingEPKh(ptr noundef nonnull align 8 dereferenceable(8) %9, ptr noundef %10)
  store i32 %11, ptr %7, align 4, !tbaa !13
  %12 = load i32, ptr %7, align 4, !tbaa !13
  %13 = getelementptr inbounds nuw %"struct.faiss::HCounterState.16", ptr %8, i32 0, i32 3
  %14 = load i32, ptr %13, align 8, !tbaa !610
  %15 = icmp sle i32 %12, %14
  br i1 %15, label %16, label %101

16:                                               ; preds = %3
  %17 = load i32, ptr %7, align 4, !tbaa !13
  %18 = getelementptr inbounds nuw %"struct.faiss::HCounterState.16", ptr %8, i32 0, i32 3
  %19 = load i32, ptr %18, align 8, !tbaa !610
  %20 = icmp slt i32 %17, %19
  br i1 %20, label %21, label %72

21:                                               ; preds = %16
  %22 = load i64, ptr %6, align 8, !tbaa !9
  %23 = getelementptr inbounds nuw %"struct.faiss::HCounterState.16", ptr %8, i32 0, i32 1
  %24 = load ptr, ptr %23, align 8, !tbaa !603
  %25 = load i32, ptr %7, align 4, !tbaa !13
  %26 = getelementptr inbounds nuw %"struct.faiss::HCounterState.16", ptr %8, i32 0, i32 6
  %27 = load i32, ptr %26, align 4, !tbaa !613
  %28 = mul nsw i32 %25, %27
  %29 = getelementptr inbounds nuw %"struct.faiss::HCounterState.16", ptr %8, i32 0, i32 0
  %30 = load ptr, ptr %29, align 8, !tbaa !601
  %31 = load i32, ptr %7, align 4, !tbaa !13
  %32 = sext i32 %31 to i64
  %33 = getelementptr inbounds i32, ptr %30, i64 %32
  %34 = load i32, ptr %33, align 4, !tbaa !13
  %35 = add nsw i32 %34, 1
  store i32 %35, ptr %33, align 4, !tbaa !13
  %36 = add nsw i32 %28, %34
  %37 = sext i32 %36 to i64
  %38 = getelementptr inbounds i64, ptr %24, i64 %37
  store i64 %22, ptr %38, align 8, !tbaa !9
  %39 = getelementptr inbounds nuw %"struct.faiss::HCounterState.16", ptr %8, i32 0, i32 4
  %40 = load i32, ptr %39, align 4, !tbaa !611
  %41 = add nsw i32 %40, 1
  store i32 %41, ptr %39, align 4, !tbaa !611
  br label %42

42:                                               ; preds = %54, %21
  %43 = getelementptr inbounds nuw %"struct.faiss::HCounterState.16", ptr %8, i32 0, i32 4
  %44 = load i32, ptr %43, align 4, !tbaa !611
  %45 = getelementptr inbounds nuw %"struct.faiss::HCounterState.16", ptr %8, i32 0, i32 6
  %46 = load i32, ptr %45, align 4, !tbaa !613
  %47 = icmp eq i32 %44, %46
  br i1 %47, label %48, label %52

48:                                               ; preds = %42
  %49 = getelementptr inbounds nuw %"struct.faiss::HCounterState.16", ptr %8, i32 0, i32 3
  %50 = load i32, ptr %49, align 8, !tbaa !610
  %51 = icmp sgt i32 %50, 0
  br label %52

52:                                               ; preds = %48, %42
  %53 = phi i1 [ false, %42 ], [ %51, %48 ]
  br i1 %53, label %54, label %71

54:                                               ; preds = %52
  %55 = getelementptr inbounds nuw %"struct.faiss::HCounterState.16", ptr %8, i32 0, i32 3
  %56 = load i32, ptr %55, align 8, !tbaa !610
  %57 = add nsw i32 %56, -1
  store i32 %57, ptr %55, align 8, !tbaa !610
  %58 = getelementptr inbounds nuw %"struct.faiss::HCounterState.16", ptr %8, i32 0, i32 0
  %59 = load ptr, ptr %58, align 8, !tbaa !601
  %60 = getelementptr inbounds nuw %"struct.faiss::HCounterState.16", ptr %8, i32 0, i32 3
  %61 = load i32, ptr %60, align 8, !tbaa !610
  %62 = sext i32 %61 to i64
  %63 = getelementptr inbounds i32, ptr %59, i64 %62
  %64 = load i32, ptr %63, align 4, !tbaa !13
  %65 = getelementptr inbounds nuw %"struct.faiss::HCounterState.16", ptr %8, i32 0, i32 5
  store i32 %64, ptr %65, align 8, !tbaa !612
  %66 = getelementptr inbounds nuw %"struct.faiss::HCounterState.16", ptr %8, i32 0, i32 5
  %67 = load i32, ptr %66, align 8, !tbaa !612
  %68 = getelementptr inbounds nuw %"struct.faiss::HCounterState.16", ptr %8, i32 0, i32 4
  %69 = load i32, ptr %68, align 4, !tbaa !611
  %70 = sub nsw i32 %69, %67
  store i32 %70, ptr %68, align 4, !tbaa !611
  br label %42, !llvm.loop !617

71:                                               ; preds = %52
  br label %100

72:                                               ; preds = %16
  %73 = getelementptr inbounds nuw %"struct.faiss::HCounterState.16", ptr %8, i32 0, i32 5
  %74 = load i32, ptr %73, align 8, !tbaa !612
  %75 = getelementptr inbounds nuw %"struct.faiss::HCounterState.16", ptr %8, i32 0, i32 6
  %76 = load i32, ptr %75, align 4, !tbaa !613
  %77 = icmp slt i32 %74, %76
  br i1 %77, label %78, label %99

78:                                               ; preds = %72
  %79 = load i64, ptr %6, align 8, !tbaa !9
  %80 = getelementptr inbounds nuw %"struct.faiss::HCounterState.16", ptr %8, i32 0, i32 1
  %81 = load ptr, ptr %80, align 8, !tbaa !603
  %82 = load i32, ptr %7, align 4, !tbaa !13
  %83 = getelementptr inbounds nuw %"struct.faiss::HCounterState.16", ptr %8, i32 0, i32 6
  %84 = load i32, ptr %83, align 4, !tbaa !613
  %85 = mul nsw i32 %82, %84
  %86 = getelementptr inbounds nuw %"struct.faiss::HCounterState.16", ptr %8, i32 0, i32 5
  %87 = load i32, ptr %86, align 8, !tbaa !612
  %88 = add nsw i32 %87, 1
  store i32 %88, ptr %86, align 8, !tbaa !612
  %89 = add nsw i32 %85, %87
  %90 = sext i32 %89 to i64
  %91 = getelementptr inbounds i64, ptr %81, i64 %90
  store i64 %79, ptr %91, align 8, !tbaa !9
  %92 = getelementptr inbounds nuw %"struct.faiss::HCounterState.16", ptr %8, i32 0, i32 5
  %93 = load i32, ptr %92, align 8, !tbaa !612
  %94 = getelementptr inbounds nuw %"struct.faiss::HCounterState.16", ptr %8, i32 0, i32 0
  %95 = load ptr, ptr %94, align 8, !tbaa !601
  %96 = load i32, ptr %7, align 4, !tbaa !13
  %97 = sext i32 %96 to i64
  %98 = getelementptr inbounds i32, ptr %95, i64 %97
  store i32 %93, ptr %98, align 4, !tbaa !13
  br label %99

99:                                               ; preds = %78, %72
  br label %100

100:                                              ; preds = %99, %71
  br label %101

101:                                              ; preds = %100, %3
  call void @llvm.lifetime.end.p0(i64 4, ptr %7) #7
  ret void
}

; Function Attrs: mustprogress nounwind uwtable
define linkonce_odr noundef nonnull align 8 dereferenceable(40) ptr @_ZNSt6vectorIN5faiss13HCounterStateINS0_16HammingComputer8EEESaIS3_EEixEm(ptr noundef nonnull align 8 dereferenceable(24) %0, i64 noundef %1) #5 comdat align 2 {
  %3 = alloca ptr, align 8
  %4 = alloca i64, align 8
  store ptr %0, ptr %3, align 8, !tbaa !608
  store i64 %1, ptr %4, align 8, !tbaa !9
  %5 = load ptr, ptr %3, align 8
  %6 = getelementptr inbounds nuw %"struct.std::_Vector_base.12", ptr %5, i32 0, i32 0
  %7 = getelementptr inbounds nuw %"struct.std::_Vector_base<faiss::HCounterState<faiss::HammingComputer8>, std::allocator<faiss::HCounterState<faiss::HammingComputer8>>>::_Vector_impl_data", ptr %6, i32 0, i32 0
  %8 = load ptr, ptr %7, align 8, !tbaa !615
  %9 = load i64, ptr %4, align 8, !tbaa !9
  %10 = getelementptr inbounds nuw %"struct.faiss::HCounterState.16", ptr %8, i64 %9
  ret ptr %10
}

; Function Attrs: alwaysinline norecurse nounwind uwtable
define internal void @_ZN5faiss12_GLOBAL__N_115hammings_knn_mcINS_16HammingComputer8EEEviPKhS4_mmmPiPl.omp_outlined(ptr noalias noundef %0, ptr noalias noundef %1, ptr noundef nonnull align 8 dereferenceable(8) %2, ptr noundef nonnull align 8 dereferenceable(8) %3, ptr noundef nonnull align 8 dereferenceable(8) %4, ptr noundef nonnull align 8 dereferenceable(24) %5, ptr noundef nonnull align 8 dereferenceable(8) %6, ptr noundef nonnull align 4 dereferenceable(4) %7) #14 personality ptr @__gxx_personality_v0 {
  %9 = alloca ptr, align 8
  %10 = alloca ptr, align 8
  %11 = alloca ptr, align 8
  %12 = alloca ptr, align 8
  %13 = alloca ptr, align 8
  %14 = alloca ptr, align 8
  %15 = alloca ptr, align 8
  %16 = alloca ptr, align 8
  %17 = alloca i64, align 8
  %18 = alloca i64, align 8
  %19 = alloca i64, align 8
  %20 = alloca i64, align 8
  %21 = alloca i64, align 8
  %22 = alloca i64, align 8
  %23 = alloca i64, align 8
  %24 = alloca i32, align 4
  %25 = alloca i64, align 8
  %26 = alloca i64, align 8
  store ptr %0, ptr %9, align 8, !tbaa !11
  store ptr %1, ptr %10, align 8, !tbaa !11
  store ptr %2, ptr %11, align 8, !tbaa !4
  store ptr %3, ptr %12, align 8, !tbaa !4
  store ptr %4, ptr %13, align 8, !tbaa !4
  store ptr %5, ptr %14, align 8, !tbaa !608
  store ptr %6, ptr %15, align 8, !tbaa !30
  store ptr %7, ptr %16, align 8, !tbaa !11
  %27 = load ptr, ptr %11, align 8, !tbaa !4
  %28 = load ptr, ptr %12, align 8, !tbaa !4
  %29 = load ptr, ptr %13, align 8, !tbaa !4
  %30 = load ptr, ptr %14, align 8, !tbaa !608
  %31 = load ptr, ptr %15, align 8, !tbaa !30
  %32 = load ptr, ptr %16, align 8, !tbaa !11
  call void @llvm.lifetime.start.p0(i64 8, ptr %17) #7
  call void @llvm.lifetime.start.p0(i64 8, ptr %18) #7
  %33 = load i64, ptr %27, align 8, !tbaa !9
  store i64 %33, ptr %18, align 8, !tbaa !9
  call void @llvm.lifetime.start.p0(i64 8, ptr %19) #7
  %34 = load i64, ptr %18, align 8, !tbaa !9
  %35 = sub i64 %34, 0
  %36 = udiv i64 %35, 1
  %37 = sub i64 %36, 1
  store i64 %37, ptr %19, align 8, !tbaa !9
  call void @llvm.lifetime.start.p0(i64 8, ptr %20) #7
  store i64 0, ptr %20, align 8, !tbaa !9
  call void @llvm.lifetime.end.p0(i64 8, ptr %20) #7
  %38 = load i64, ptr %18, align 8, !tbaa !9
  %39 = icmp ult i64 0, %38
  br i1 %39, label %40, label %93

40:                                               ; preds = %8
  call void @llvm.lifetime.start.p0(i64 8, ptr %21) #7
  store i64 0, ptr %21, align 8, !tbaa !9
  call void @llvm.lifetime.start.p0(i64 8, ptr %22) #7
  %41 = load i64, ptr %19, align 8, !tbaa !9
  store i64 %41, ptr %22, align 8, !tbaa !9
  call void @llvm.lifetime.start.p0(i64 8, ptr %23) #7
  store i64 1, ptr %23, align 8, !tbaa !9
  call void @llvm.lifetime.start.p0(i64 4, ptr %24) #7
  store i32 0, ptr %24, align 4, !tbaa !13
  call void @llvm.lifetime.start.p0(i64 8, ptr %25) #7
  %42 = load ptr, ptr %9, align 8
  %43 = load i32, ptr %42, align 4, !tbaa !13
  call void @__kmpc_for_static_init_8u(ptr @1, i32 %43, i32 34, ptr %24, ptr %21, ptr %22, ptr %23, i64 1, i64 1)
  %44 = load i64, ptr %22, align 8, !tbaa !9
  %45 = load i64, ptr %19, align 8, !tbaa !9
  %46 = icmp ugt i64 %44, %45
  br i1 %46, label %47, label %49

47:                                               ; preds = %40
  %48 = load i64, ptr %19, align 8, !tbaa !9
  br label %51

49:                                               ; preds = %40
  %50 = load i64, ptr %22, align 8, !tbaa !9
  br label %51

51:                                               ; preds = %49, %47
  %52 = phi i64 [ %48, %47 ], [ %50, %49 ]
  store i64 %52, ptr %22, align 8, !tbaa !9
  %53 = load i64, ptr %21, align 8, !tbaa !9
  store i64 %53, ptr %17, align 8, !tbaa !9
  br label %54

54:                                               ; preds = %86, %51
  %55 = load i64, ptr %17, align 8, !tbaa !9
  %56 = load i64, ptr %22, align 8, !tbaa !9
  %57 = add i64 %56, 1
  %58 = icmp ult i64 %55, %57
  br i1 %58, label %60, label %59

59:                                               ; preds = %54
  br label %89

60:                                               ; preds = %54
  %61 = load i64, ptr %17, align 8, !tbaa !9
  %62 = mul i64 %61, 1
  %63 = add i64 0, %62
  store i64 %63, ptr %25, align 8, !tbaa !9
  call void @llvm.lifetime.start.p0(i64 8, ptr %26) #7
  %64 = load i64, ptr %28, align 8, !tbaa !9
  store i64 %64, ptr %26, align 8, !tbaa !9
  br label %65

65:                                               ; preds = %81, %60
  %66 = load i64, ptr %26, align 8, !tbaa !9
  %67 = load i64, ptr %29, align 8, !tbaa !9
  %68 = icmp ult i64 %66, %67
  br i1 %68, label %70, label %69

69:                                               ; preds = %65
  call void @llvm.lifetime.end.p0(i64 8, ptr %26) #7
  br label %84

70:                                               ; preds = %65
  %71 = load i64, ptr %25, align 8, !tbaa !9
  %72 = call noundef nonnull align 8 dereferenceable(40) ptr @_ZNSt6vectorIN5faiss13HCounterStateINS0_16HammingComputer8EEESaIS3_EEixEm(ptr noundef nonnull align 8 dereferenceable(24) %30, i64 noundef %71) #7
  %73 = load ptr, ptr %31, align 8, !tbaa !21
  %74 = load i64, ptr %26, align 8, !tbaa !9
  %75 = load i32, ptr %32, align 4, !tbaa !13
  %76 = sext i32 %75 to i64
  %77 = mul i64 %74, %76
  %78 = getelementptr inbounds nuw i8, ptr %73, i64 %77
  %79 = load i64, ptr %26, align 8, !tbaa !9
  invoke void @_ZN5faiss13HCounterStateINS_16HammingComputer8EE14update_counterEPKhm(ptr noundef nonnull align 8 dereferenceable(40) %72, ptr noundef %78, i64 noundef %79)
          to label %80 unwind label %94

80:                                               ; preds = %70
  br label %81

81:                                               ; preds = %80
  %82 = load i64, ptr %26, align 8, !tbaa !9
  %83 = add i64 %82, 1
  store i64 %83, ptr %26, align 8, !tbaa !9
  br label %65, !llvm.loop !614

84:                                               ; preds = %69
  br label %85

85:                                               ; preds = %84
  br label %86

86:                                               ; preds = %85
  %87 = load i64, ptr %17, align 8, !tbaa !9
  %88 = add i64 %87, 1
  store i64 %88, ptr %17, align 8, !tbaa !9
  br label %54

89:                                               ; preds = %59
  br label %90

90:                                               ; preds = %89
  %91 = load ptr, ptr %9, align 8
  %92 = load i32, ptr %91, align 4, !tbaa !13
  call void @__kmpc_for_static_fini(ptr @1, i32 %92)
  call void @llvm.lifetime.end.p0(i64 8, ptr %25) #7
  call void @llvm.lifetime.end.p0(i64 4, ptr %24) #7
  call void @llvm.lifetime.end.p0(i64 8, ptr %23) #7
  call void @llvm.lifetime.end.p0(i64 8, ptr %22) #7
  call void @llvm.lifetime.end.p0(i64 8, ptr %21) #7
  br label %93

93:                                               ; preds = %90, %8
  call void @llvm.lifetime.end.p0(i64 8, ptr %19) #7
  call void @llvm.lifetime.end.p0(i64 8, ptr %18) #7
  call void @llvm.lifetime.end.p0(i64 8, ptr %17) #7
  ret void

94:                                               ; preds = %70
  %95 = landingpad { ptr, i32 }
          catch ptr null
  %96 = extractvalue { ptr, i32 } %95, 0
  call void @__clang_call_terminate(ptr %96) #20
  unreachable
}