; Function Attrs: alwaysinline norecurse nounwind uwtable
define internal void @_ZN5faiss12_GLOBAL__N_115hammings_knn_mcINS_16HammingComputer8EEEviPKhS4_mmmPiPl.omp_outlined(ptr noalias noundef readonly captures(none) %0, ptr noalias readnone captures(none) %1, ptr noundef nonnull readonly align 8 captures(none) dereferenceable(8) %2, ptr noundef nonnull readonly align 8 captures(none) dereferenceable(8) %3, ptr noundef nonnull readonly align 8 captures(none) dereferenceable(8) %4, ptr noundef nonnull readonly align 8 captures(none) dereferenceable(24) %5, ptr noundef nonnull readonly align 8 captures(none) dereferenceable(8) %6, ptr noundef nonnull readonly align 4 captures(none) dereferenceable(4) %7) #17 personality ptr @__gxx_personality_v0 {
  %9 = alloca i64, align 8
  %10 = alloca i64, align 8
  %11 = alloca i64, align 8
  %12 = alloca i32, align 4
  %13 = load i64, ptr %2, align 8, !tbaa !4
  %.not = icmp eq i64 %13, 0
  br i1 %.not, label %94, label %14

14:                                               ; preds = %8
  %15 = add i64 %13, -1
  call void @llvm.lifetime.start.p0(i64 8, ptr nonnull %9) #5
  store i64 0, ptr %9, align 8, !tbaa !4
  call void @llvm.lifetime.start.p0(i64 8, ptr nonnull %10) #5
  store i64 %15, ptr %10, align 8, !tbaa !4
  call void @llvm.lifetime.start.p0(i64 8, ptr nonnull %11) #5
  store i64 1, ptr %11, align 8, !tbaa !4
  call void @llvm.lifetime.start.p0(i64 4, ptr nonnull %12) #5
  store i32 0, ptr %12, align 4, !tbaa !10
  %16 = load i32, ptr %0, align 4, !tbaa !10
  call void @__kmpc_for_static_init_8u(ptr nonnull @1, i32 %16, i32 34, ptr nonnull %12, ptr nonnull %9, ptr nonnull %10, ptr nonnull %11, i64 1, i64 1)
  %17 = load i64, ptr %10, align 8, !tbaa !4
  %18 = call i64 @llvm.umin.i64(i64 %17, i64 %15)
  store i64 %18, ptr %10, align 8, !tbaa !4
  %19 = load i64, ptr %9, align 8, !tbaa !4
  %.not27 = icmp ugt i64 %19, %18
  br i1 %.not27, label %._crit_edge25, label %.lr.ph24

.lr.ph24:                                         ; preds = %14
  %20 = load ptr, ptr %5, align 8
  %21 = load ptr, ptr %6, align 8
  %22 = load i64, ptr %3, align 8, !tbaa !4
  %23 = load i64, ptr %4, align 8, !tbaa !4
  %24 = icmp ult i64 %22, %23
  br i1 %24, label %.lr.ph24.split, label %._crit_edge25

.lr.ph24.split:                                   ; preds = %.lr.ph24, %._crit_edge
  %25 = phi i64 [ %36, %._crit_edge ], [ %18, %.lr.ph24 ]
  %26 = phi i64 [ %37, %._crit_edge ], [ %23, %.lr.ph24 ]
  %.02022 = phi i64 [ %38, %._crit_edge ], [ %19, %.lr.ph24 ]
  %27 = load i64, ptr %3, align 8, !tbaa !4
  %28 = icmp ult i64 %27, %26
  br i1 %28, label %.lr.ph, label %._crit_edge

.lr.ph:                                           ; preds = %.lr.ph24.split
  %29 = getelementptr inbounds nuw %"struct.faiss::HCounterState.16", ptr %20, i64 %.02022
  %30 = getelementptr inbounds nuw i8, ptr %29, i64 16
  %31 = getelementptr inbounds nuw i8, ptr %29, i64 24
  %32 = getelementptr inbounds nuw i8, ptr %29, i64 36
  %33 = getelementptr inbounds nuw i8, ptr %29, i64 32
  %34 = getelementptr inbounds nuw i8, ptr %29, i64 8
  %35 = getelementptr inbounds nuw i8, ptr %29, i64 28
  br label %41

._crit_edge.loopexit:                             ; preds = %_ZN5faiss13HCounterStateINS_16HammingComputer8EE14update_counterEPKhm.exit
  %.pre = load i64, ptr %10, align 8, !tbaa !4
  br label %._crit_edge

._crit_edge:                                      ; preds = %._crit_edge.loopexit, %.lr.ph24.split
  %36 = phi i64 [ %.pre, %._crit_edge.loopexit ], [ %25, %.lr.ph24.split ]
  %37 = phi i64 [ %92, %._crit_edge.loopexit ], [ %26, %.lr.ph24.split ]
  %38 = add nuw i64 %.02022, 1
  %39 = add i64 %36, 1
  %40 = icmp ult i64 %38, %39
  br i1 %40, label %.lr.ph24.split, label %._crit_edge25, !llvm.loop !758

41:                                               ; preds = %.lr.ph, %_ZN5faiss13HCounterStateINS_16HammingComputer8EE14update_counterEPKhm.exit
  %.021 = phi i64 [ %27, %.lr.ph ], [ %91, %_ZN5faiss13HCounterStateINS_16HammingComputer8EE14update_counterEPKhm.exit ]
  %42 = load i32, ptr %7, align 4, !tbaa !10
  %43 = sext i32 %42 to i64
  %44 = mul i64 %.021, %43
  %45 = getelementptr inbounds nuw i8, ptr %21, i64 %44
  %46 = load i64, ptr %45, align 8, !tbaa !4
  %47 = load i64, ptr %30, align 8, !tbaa !223
  %48 = xor i64 %47, %46
  %49 = call range(i64 0, 65) i64 @llvm.ctpop.i64(i64 %48)
  %50 = trunc nuw nsw i64 %49 to i32
  %51 = load i32, ptr %31, align 8, !tbaa !759
  %.not.i = icmp slt i32 %51, %50
  br i1 %.not.i, label %_ZN5faiss13HCounterStateINS_16HammingComputer8EE14update_counterEPKhm.exit, label %52

52:                                               ; preds = %41
  %53 = icmp samesign ugt i32 %51, %50
  %54 = load i32, ptr %32, align 4, !tbaa !760
  br i1 %53, label %55, label %79

55:                                               ; preds = %52
  %56 = load ptr, ptr %34, align 8, !tbaa !584
  %57 = mul nsw i32 %54, %50
  %58 = load ptr, ptr %29, align 8, !tbaa !577
  %59 = getelementptr inbounds nuw i32, ptr %58, i64 %49
  %60 = load i32, ptr %59, align 4, !tbaa !10
  %61 = add nsw i32 %60, 1
  store i32 %61, ptr %59, align 4, !tbaa !10
  %62 = add nsw i32 %60, %57
  %63 = sext i32 %62 to i64
  %64 = getelementptr inbounds i64, ptr %56, i64 %63
  store i64 %.021, ptr %64, align 8, !tbaa !4
  %65 = load i32, ptr %35, align 4, !tbaa !761
  %66 = add nsw i32 %65, 1
  %67 = load i32, ptr %32, align 4, !tbaa !760
  %.promoted.i = load i32, ptr %31, align 1
  store i32 %66, ptr %35, align 4, !tbaa !761
  %68 = icmp eq i32 %66, %67
  br i1 %68, label %.lr.ph.i, label %_ZN5faiss13HCounterStateINS_16HammingComputer8EE14update_counterEPKhm.exit

.lr.ph.i:                                         ; preds = %55
  %69 = zext i32 %.promoted.i to i64
  br label %70

70:                                               ; preds = %73, %.lr.ph.i
  %indvars.iv.i = phi i64 [ %69, %.lr.ph.i ], [ %indvars.iv.next.i, %73 ]
  %71 = trunc nuw i64 %indvars.iv.i to i32
  %72 = icmp sgt i32 %71, 0
  br i1 %72, label %73, label %_ZN5faiss13HCounterStateINS_16HammingComputer8EE14update_counterEPKhm.exit

73:                                               ; preds = %70
  %indvars.iv.next.i = add nsw i64 %indvars.iv.i, -1
  %indvars.i = trunc i64 %indvars.iv.next.i to i32
  store i32 %indvars.i, ptr %31, align 8, !tbaa !759
  %74 = and i64 %indvars.iv.next.i, 4294967295
  %75 = getelementptr inbounds nuw i32, ptr %58, i64 %74
  %76 = load i32, ptr %75, align 4, !tbaa !10
  store i32 %76, ptr %33, align 8, !tbaa !762
  %77 = sub nsw i32 %66, %76
  store i32 %77, ptr %35, align 4, !tbaa !761
  %78 = icmp eq i32 %76, 0
  br i1 %78, label %70, label %_ZN5faiss13HCounterStateINS_16HammingComputer8EE14update_counterEPKhm.exit, !llvm.loop !763

79:                                               ; preds = %52
  %80 = load i32, ptr %33, align 8, !tbaa !762
  %81 = icmp slt i32 %80, %54
  br i1 %81, label %82, label %_ZN5faiss13HCounterStateINS_16HammingComputer8EE14update_counterEPKhm.exit

82:                                               ; preds = %79
  %83 = load ptr, ptr %34, align 8, !tbaa !584
  %84 = mul nsw i32 %54, %50
  %85 = add nsw i32 %80, 1
  store i32 %85, ptr %33, align 8, !tbaa !762
  %86 = add nsw i32 %80, %84
  %87 = sext i32 %86 to i64
  %88 = getelementptr inbounds i64, ptr %83, i64 %87
  store i64 %.021, ptr %88, align 8, !tbaa !4
  %89 = load ptr, ptr %29, align 8, !tbaa !577
  %90 = getelementptr inbounds nuw i32, ptr %89, i64 %49
  store i32 %85, ptr %90, align 4, !tbaa !10
  br label %_ZN5faiss13HCounterStateINS_16HammingComputer8EE14update_counterEPKhm.exit

_ZN5faiss13HCounterStateINS_16HammingComputer8EE14update_counterEPKhm.exit: ; preds = %70, %73, %41, %55, %79, %82
  %91 = add nuw i64 %.021, 1
  %92 = load i64, ptr %4, align 8, !tbaa !4
  %93 = icmp ult i64 %91, %92
  br i1 %93, label %41, label %._crit_edge.loopexit, !llvm.loop !764

._crit_edge25:                                    ; preds = %._crit_edge, %.lr.ph24, %14
  call void @__kmpc_for_static_fini(ptr nonnull @1, i32 %16)
  call void @llvm.lifetime.end.p0(i64 4, ptr nonnull %12) #5
  call void @llvm.lifetime.end.p0(i64 8, ptr nonnull %11) #5
  call void @llvm.lifetime.end.p0(i64 8, ptr nonnull %10) #5
  call void @llvm.lifetime.end.p0(i64 8, ptr nonnull %9) #5
  br label %94

94:                                               ; preds = %._crit_edge25, %8
  ret void
}